target datalayout = "e-m:e-p270:32:32-p271:32:32-p272:64:64-i64:64-i128:128-f80:128-n8:16:32:64-S128"
target triple = "x86_64-pc-linux-gnu"

%"class.llvm::NoopStatistic" = type { i8 }

@_ZL22NumInaccessibleMemOnly = internal global %"class.llvm::NoopStatistic" zeroinitializer, align 1

; Function Attrs: mustprogress nounwind uwtable
define linkonce_odr hidden noundef nonnull align 1 dereferenceable(1) ptr @_ZN4llvm13NoopStatisticppEv(ptr noundef nonnull align 1 dereferenceable(1) %0) #1 comdat align 2 {
  %2 = alloca ptr, align 8
  store ptr %0, ptr %2, align 8
  %3 = load ptr, ptr %2, align 8
  ret ptr %3
}

; Function Attrs: mustprogress nounwind uwtable
define internal noundef zeroext i1 @_ZL33setOnlyAccessesInaccessibleMemoryRN4llvm8FunctionE(ptr noundef nonnull align 8 dereferenceable(136) %0) #1 {
  %2 = alloca i1, align 1
  %3 = alloca ptr, align 8
  store ptr %0, ptr %3, align 8
  %4 = load ptr, ptr %3, align 8
  %5 = call noundef zeroext i1 @_ZNK4llvm8Function30onlyAccessesInaccessibleMemoryEv(ptr noundef nonnull align 8 dereferenceable(136) %4)
  br i1 %5, label %6, label %7

6:                                                ; preds = %1
  store i1 false, ptr %2, align 1
  br label %10

7:                                                ; preds = %1
  %8 = load ptr, ptr %3, align 8
  call void @_ZN4llvm8Function33setOnlyAccessesInaccessibleMemoryEv(ptr noundef nonnull align 8 dereferenceable(136) %8)
  %9 = call noundef nonnull align 1 dereferenceable(1) ptr @_ZN4llvm13NoopStatisticppEv(ptr noundef nonnull align 1 dereferenceable(1) @_ZL22NumInaccessibleMemOnly)
  store i1 true, ptr %2, align 1
  br label %10

10:                                               ; preds = %7, %6
  %11 = load i1, ptr %2, align 1
  ret i1 %11
}